target datalayout = "e-m:e-p270:32:32-p271:32:32-p272:64:64-i64:64-i128:128-f80:128-n8:16:32:64-S128"
target triple = "x86_64-pc-linux-gnu"

%struct.doall_st = type { ptr, i64, ptr, i32, i32 }
%struct.index_cases_st = type { i64, ptr, i32 }

@.str.11 = private unnamed_addr constant [36 x i8] c"../openssl/test/sparse_array_test.c\00", align 1
@.str.36 = private unnamed_addr constant [34 x i8] c"Index %ju with value %s not found\00", align 1

; Function Attrs: nounwind uwtable
define internal void @leaf_check_all(i64 noundef %0, ptr noundef %1, ptr noundef %2) #0 {
  %4 = alloca i64, align 8
  %5 = alloca ptr, align 8
  %6 = alloca ptr, align 8
  %7 = alloca ptr, align 8
  %8 = alloca ptr, align 8
  %9 = alloca i64, align 8
  %10 = alloca i32, align 4
  store i64 %0, ptr %4, align 8, !tbaa !11
  store ptr %1, ptr %5, align 8, !tbaa !36
  store ptr %2, ptr %6, align 8, !tbaa !37
  call void @llvm.lifetime.start.p0(i64 8, ptr %7) #5
  %11 = load ptr, ptr %6, align 8, !tbaa !37
  store ptr %11, ptr %7, align 8, !tbaa !38
  call void @llvm.lifetime.start.p0(i64 8, ptr %8) #5
  %12 = load ptr, ptr %7, align 8, !tbaa !38
  %13 = getelementptr inbounds nuw %struct.doall_st, ptr %12, i32 0, i32 2
  %14 = load ptr, ptr %13, align 8, !tbaa !28
  store ptr %14, ptr %8, align 8, !tbaa !40
  call void @llvm.lifetime.start.p0(i64 8, ptr %9) #5
  %15 = load ptr, ptr %7, align 8, !tbaa !38
  %16 = getelementptr inbounds nuw %struct.doall_st, ptr %15, i32 0, i32 3
  store i32 0, ptr %16, align 8, !tbaa !35
  store i64 0, ptr %9, align 8, !tbaa !11
  br label %17

17:                                               ; preds = %56, %3
  %18 = load i64, ptr %9, align 8, !tbaa !11
  %19 = load ptr, ptr %7, align 8, !tbaa !38
  %20 = getelementptr inbounds nuw %struct.doall_st, ptr %19, i32 0, i32 1
  %21 = load i64, ptr %20, align 8, !tbaa !25
  %22 = icmp ult i64 %18, %21
  br i1 %22, label %23, label %59

23:                                               ; preds = %17
  %24 = load ptr, ptr %7, align 8, !tbaa !38
  %25 = getelementptr inbounds nuw %struct.doall_st, ptr %24, i32 0, i32 4
  %26 = load i32, ptr %25, align 4, !tbaa !29
  %27 = icmp ne i32 %26, 0
  br i1 %27, label %35, label %28

28:                                               ; preds = %23
  %29 = load ptr, ptr %8, align 8, !tbaa !40
  %30 = load i64, ptr %9, align 8, !tbaa !11
  %31 = getelementptr inbounds nuw %struct.index_cases_st, ptr %29, i64 %30
  %32 = getelementptr inbounds nuw %struct.index_cases_st, ptr %31, i32 0, i32 2
  %33 = load i32, ptr %32, align 8, !tbaa !41
  %34 = icmp ne i32 %33, 0
  br i1 %34, label %55, label %35

35:                                               ; preds = %28, %23
  %36 = load i64, ptr %4, align 8, !tbaa !11
  %37 = load ptr, ptr %8, align 8, !tbaa !40
  %38 = load i64, ptr %9, align 8, !tbaa !11
  %39 = getelementptr inbounds nuw %struct.index_cases_st, ptr %37, i64 %38
  %40 = getelementptr inbounds nuw %struct.index_cases_st, ptr %39, i32 0, i32 0
  %41 = load i64, ptr %40, align 8, !tbaa !31
  %42 = icmp eq i64 %36, %41
  br i1 %42, label %43, label %55

43:                                               ; preds = %35
  %44 = load ptr, ptr %5, align 8, !tbaa !36
  %45 = load ptr, ptr %8, align 8, !tbaa !40
  %46 = load i64, ptr %9, align 8, !tbaa !11
  %47 = getelementptr inbounds nuw %struct.index_cases_st, ptr %45, i64 %46
  %48 = getelementptr inbounds nuw %struct.index_cases_st, ptr %47, i32 0, i32 1
  %49 = load ptr, ptr %48, align 8, !tbaa !33
  %50 = call i32 @strcmp(ptr noundef %44, ptr noundef %49) #6
  %51 = icmp eq i32 %50, 0
  br i1 %51, label %52, label %55

52:                                               ; preds = %43
  %53 = load ptr, ptr %7, align 8, !tbaa !38
  %54 = getelementptr inbounds nuw %struct.doall_st, ptr %53, i32 0, i32 3
  store i32 1, ptr %54, align 8, !tbaa !35
  store i32 1, ptr %10, align 4
  br label %62

55:                                               ; preds = %43, %35, %28
  br label %56

56:                                               ; preds = %55
  %57 = load i64, ptr %9, align 8, !tbaa !11
  %58 = add i64 %57, 1
  store i64 %58, ptr %9, align 8, !tbaa !11
  br label %17, !llvm.loop !42

59:                                               ; preds = %17
  %60 = load i64, ptr %4, align 8, !tbaa !11
  %61 = load ptr, ptr %5, align 8, !tbaa !36
  call void (ptr, i32, ptr, ...) @test_error(ptr noundef @.str.11, i32 noundef 124, ptr noundef @.str.36, i64 noundef %60, ptr noundef %61)
  store i32 0, ptr %10, align 4
  br label %62

62:                                               ; preds = %59, %52
  call void @llvm.lifetime.end.p0(i64 8, ptr %9) #5
  call void @llvm.lifetime.end.p0(i64 8, ptr %8) #5
  call void @llvm.lifetime.end.p0(i64 8, ptr %7) #5
  %63 = load i32, ptr %10, align 4
  switch i32 %63, label %65 [
    i32 0, label %64
    i32 1, label %64
  ]

64:                                               ; preds = %62, %62
  ret void

65:                                               ; preds = %62
  unreachable
}