; Function Attrs: nounwind uwtable
define internal void @leaf_check_all(i64 noundef %0, ptr noundef %1, ptr noundef captures(none) initializes((24, 28)) %2) #0 {
  %4 = getelementptr inbounds nuw i8, ptr %2, i64 16
  %5 = load ptr, ptr %4, align 8, !tbaa !25
  %6 = getelementptr inbounds nuw i8, ptr %2, i64 24
  store i32 0, ptr %6, align 8, !tbaa !32
  %7 = getelementptr inbounds nuw i8, ptr %2, i64 8
  %8 = load i64, ptr %7, align 8, !tbaa !20
  %.not19 = icmp eq i64 %8, 0
  br i1 %.not19, label %._crit_edge, label %.lr.ph

.lr.ph:                                           ; preds = %3
  %9 = getelementptr inbounds nuw i8, ptr %2, i64 28
  %10 = load i32, ptr %9, align 4, !tbaa !26
  %.not = icmp eq i32 %10, 0
  br i1 %.not, label %.lr.ph.split.us, label %.lr.ph.split

.lr.ph.split.us:                                  ; preds = %.lr.ph, %22
  %.018.us = phi i64 [ %23, %22 ], [ 0, %.lr.ph ]
  %11 = getelementptr inbounds nuw %struct.index_cases_st, ptr %5, i64 %.018.us, i32 2
  %12 = load i32, ptr %11, align 8, !tbaa !33
  %.not17.us = icmp eq i32 %12, 0
  br i1 %.not17.us, label %13, label %22

13:                                               ; preds = %.lr.ph.split.us
  %14 = getelementptr inbounds nuw %struct.index_cases_st, ptr %5, i64 %.018.us
  %15 = load i64, ptr %14, align 8, !tbaa !28
  %16 = icmp eq i64 %0, %15
  br i1 %16, label %17, label %22

17:                                               ; preds = %13
  %18 = getelementptr inbounds nuw i8, ptr %14, i64 8
  %19 = load ptr, ptr %18, align 8, !tbaa !30
  %20 = tail call i32 @strcmp(ptr noundef nonnull dereferenceable(1) %1, ptr noundef nonnull dereferenceable(1) %19) #5
  %21 = icmp eq i32 %20, 0
  br i1 %21, label %.split.us, label %22

22:                                               ; preds = %17, %13, %.lr.ph.split.us
  %23 = add nuw i64 %.018.us, 1
  %exitcond22.not = icmp eq i64 %23, %8
  br i1 %exitcond22.not, label %._crit_edge, label %.lr.ph.split.us, !llvm.loop !34

.lr.ph.split:                                     ; preds = %.lr.ph, %32
  %.018 = phi i64 [ %33, %32 ], [ 0, %.lr.ph ]
  %24 = getelementptr inbounds nuw %struct.index_cases_st, ptr %5, i64 %.018
  %25 = load i64, ptr %24, align 8, !tbaa !28
  %26 = icmp eq i64 %0, %25
  br i1 %26, label %27, label %32

27:                                               ; preds = %.lr.ph.split
  %28 = getelementptr inbounds nuw i8, ptr %24, i64 8
  %29 = load ptr, ptr %28, align 8, !tbaa !30
  %30 = tail call i32 @strcmp(ptr noundef nonnull dereferenceable(1) %1, ptr noundef nonnull dereferenceable(1) %29) #5
  %31 = icmp eq i32 %30, 0
  br i1 %31, label %.split.us, label %32

.split.us:                                        ; preds = %27, %17
  store i32 1, ptr %6, align 8, !tbaa !32
  br label %34

32:                                               ; preds = %.lr.ph.split, %27
  %33 = add nuw i64 %.018, 1
  %exitcond.not = icmp eq i64 %33, %8
  br i1 %exitcond.not, label %._crit_edge, label %.lr.ph.split, !llvm.loop !34

._crit_edge:                                      ; preds = %32, %22, %3
  tail call void (ptr, i32, ptr, ...) @test_error(ptr noundef nonnull @.str.11, i32 noundef 124, ptr noundef nonnull @.str.36, i64 noundef %0, ptr noundef %1) #4
  br label %34

34:                                               ; preds = %._crit_edge, %.split.us
  ret void
}